(dp1
S'output'
p2
S"<class 'sqlite3.OperationalError'> table Clothing already exists"
p3
sS'layer'
p4
S'/home/pratyusha/web2py/applications/yorock/models/db.py'
p5
sS'code'
p6
S"#########################################################################\n## This scaffolding model makes your app work on Google App Engine too\n## File is released under public domain and you can use without limitations\n#########################################################################\n\n## if SSL/HTTPS is properly configured and you want all HTTP requests to\n## be redirected to HTTPS, uncomment the line below:\n# request.requires_https()\n\n## app configuration made easy. Look inside private/appconfig.ini\nfrom gluon.contrib.appconfig import AppConfig\n## once in production, remove reload=True to gain full speed\nmyconf = AppConfig(reload=True)\n\n\nif not request.env.web2py_runtime_gae:\n    ## if NOT running on Google App Engine use SQLite or other DB\n    db = DAL(myconf.take('db.uri'), pool_size=myconf.take('db.pool_size', cast=int), check_reserved=['all'])\nelse:\n    ## connect to Google BigTable (optional 'google:datastore://namespace')\n    db = DAL('google:datastore+ndb')\n    ## store sessions and tickets there\n    session.connect(request, response, db=db)\n    ## or store session in Memcache, Redis, etc.\n    ## from gluon.contrib.memdb import MEMDB\n    ## from google.appengine.api.memcache import Client\n    ## session.connect(request, response, db = MEMDB(Client()))\n\n## by default give a view/generic.extension to all actions from localhost\n## none otherwise. a pattern can be 'controller/function.extension'\nresponse.generic_patterns = ['*'] if request.is_local else []\n## choose a style for forms\nresponse.formstyle = myconf.take('forms.formstyle')  # or 'bootstrap3_stacked' or 'bootstrap2' or other\nresponse.form_label_separator = myconf.take('forms.separator')\n\n\n## (optional) optimize handling of static files\n# response.optimize_css = 'concat,minify,inline'\n# response.optimize_js = 'concat,minify,inline'\n## (optional) static assets folder versioning\n# response.static_version = '0.0.0'\n#########################################################################\n## Here is sample code if you need for\n## - email capabilities\n## - authentication (registration, login, logout, ... )\n## - authorization (role based authorization)\n## - services (xml, csv, json, xmlrpc, jsonrpc, amf, rss)\n## - old style crud actions\n## (more options discussed in gluon/tools.py)\n#########################################################################\n\nfrom gluon.tools import Auth, Service, PluginManager\n\nauth = Auth(db)\nservice = Service()\nplugins = PluginManager()\n\n## create all tables needed by auth if not custom tables\nauth.define_tables(username=False, signature=False)\n\n## configure email\nmail = auth.settings.mailer\nmail.settings.server = 'logging' if request.is_local else myconf.take('smtp.sender')\nmail.settings.sender = myconf.take('smtp.sender')\nmail.settings.login = myconf.take('smtp.login')\n\n## configure auth policy\nauth.settings.registration_requires_verification = False\nauth.settings.registration_requires_approval = False\nauth.settings.reset_password_requires_verification = True\n\n#########################################################################\n## Define your tables below (or better in another model file) for example\n##\n## >>> db.define_table('mytable',Field('myfield','string'))\n##\n## Fields can be 'string','text','password','integer','double','boolean'\n##       'date','time','datetime','blob','upload', 'reference TABLENAME'\n## There is an implicit 'id integer autoincrement' field\n## Consult manual for more options, validators, etc.\n##\n## More API examples for controllers:\n##\n## >>> db.mytable.insert(myfield='value')\n## >>> rows=db(db.mytable.myfield=='value').select(db.mytable.ALL)\n## >>> for row in rows: print row.id, row.myfield\n#########################################################################\n\n## after defining tables, uncomment below to enable auditing\ndb.define_table('product',\n    Field('name','string',requires=IS_NOT_EMPTY(),unique=True),\n    Field('price','integer',requires=IS_NOT_EMPTY()),\n    Field('description','text'),\n    Field('image','upload'),\n    )\n\ndb.define_table('phones',\n    Field('name','string',requires=IS_NOT_EMPTY(),unique=True),\n    Field('price','integer',requires=IS_NOT_EMPTY()),\n    Field('description','text'),\n    Field('image','upload'),\n    )\ndb.define_table('laptops',\n    Field('name','string',requires=IS_NOT_EMPTY(),unique=True),\n    Field('price','integer',requires=IS_NOT_EMPTY()),\n    Field('description','text'),\n    Field('image','upload'),\n    )\ndb.define_table('ipads',\n    Field('name','string',requires=IS_NOT_EMPTY(),unique=True),\n    Field('price','integer',requires=IS_NOT_EMPTY()),\n    Field('description','text'),\n    Field('image','upload'),\n    )\ndb.define_table('tablets',\n    Field('name','string',requires=IS_NOT_EMPTY(),unique=True),\n    Field('price','integer',requires=IS_NOT_EMPTY()),\n    Field('description','text'),\n    Field('image','upload'),\n    )\ndb.define_table('fiction',\n    Field('name','string',requires=IS_NOT_EMPTY(),unique=True),\n    Field('author','string',requires=IS_NOT_EMPTY()),\n    Field('price','integer',requires=IS_NOT_EMPTY()),\n    Field('description','text'),\n    Field('image','upload'),\n    )\ndb.define_table('philosophy',\n    Field('name','string',requires=IS_NOT_EMPTY(),unique=True),\n    Field('author','string',requires=IS_NOT_EMPTY()),\n    Field('price','integer',requires=IS_NOT_EMPTY()),\n    Field('description','text'),\n    Field('image','upload'),\n    )\ndb.define_table('sciefi',\n    Field('name','string',requires=IS_NOT_EMPTY(),unique=True),\n    Field('author','string',requires=IS_NOT_EMPTY()),\n    Field('price','integer',requires=IS_NOT_EMPTY()),\n    Field('description','text'),\n    Field('image','upload'),\n    )\ndb.define_table('biography',\n    Field('name','string',requires=IS_NOT_EMPTY(),unique=True),\n    Field('author','string',requires=IS_NOT_EMPTY()),\n    Field('price','integer',requires=IS_NOT_EMPTY()),\n    Field('description','text'),\n    Field('image','upload'),\n    )\ndb.define_table('history',\n    Field('name','string',requires=IS_NOT_EMPTY(),unique=True),\n    Field('author','string',requires=IS_NOT_EMPTY()),\n    Field('price','integer',requires=IS_NOT_EMPTY()),\n    Field('description','text'),\n    Field('image','upload'),\n    )\ndb.define_table('clothing',\n    Field('name','string',requires=IS_NOT_EMPTY(),unique=True),\n    Field('price','integer',requires=IS_NOT_EMPTY()),\n    Field('description','text'),\n    Field('image','upload'),\n    )\ndb.define_table('footwear',\n    Field('name','string',requires=IS_NOT_EMPTY(),unique=True),\n    Field('price','integer',requires=IS_NOT_EMPTY()),\n    Field('description','text'),\n    Field('image','upload'),\n    )\ndb.define_table('accessories',\n    Field('name','string',requires=IS_NOT_EMPTY(),unique=True),\n    Field('price','integer',requires=IS_NOT_EMPTY()),\n    Field('description','text'),\n    Field('image','upload'),\n    )\ndb.define_table('Clothing',\n    Field('name','string',requires=IS_NOT_EMPTY(),unique=True),\n    Field('price','integer',requires=IS_NOT_EMPTY()),\n    Field('description','text'),\n    Field('image','upload'),\n    )\ndb.define_table('Footwear',\n    Field('name','string',requires=IS_NOT_EMPTY(),unique=True),\n    Field('price','integer',requires=IS_NOT_EMPTY()),\n    Field('description','text'),\n    Field('image','upload'),\n    )\ndb.define_table('Accessories',\n    Field('name','string',requires=IS_NOT_EMPTY(),unique=True),\n    Field('price','integer',requires=IS_NOT_EMPTY()),\n    Field('description','text'),\n    Field('image','upload'),\n    )\n\n\n\n\nauth.enable_record_versioning(db)\n"
p7
sS'snapshot'
p8
(dp9
S'exception'
p10
(dp11
S'__module__'
p12
S"'sqlite3'"
p13
sS'__getslice__'
p14
S"<method-wrapper '__getslice__' of OperationalError object>"
p15
sS'__str__'
p16
S"<method-wrapper '__str__' of OperationalError object>"
p17
sS'__reduce__'
p18
S'<built-in method __reduce__ of OperationalError object>'
p19
sS'__dict__'
p20
S'{}'
p21
sS'__sizeof__'
p22
S'<built-in method __sizeof__ of OperationalError object>'
p23
sS'__weakref__'
p24
S'None'
p25
sS'__init__'
p26
S"<method-wrapper '__init__' of OperationalError object>"
p27
sS'__setattr__'
p28
S"<method-wrapper '__setattr__' of OperationalError object>"
p29
sS'__reduce_ex__'
p30
S'<built-in method __reduce_ex__ of OperationalError object>'
p31
sS'__new__'
p32
S'<built-in method __new__ of type object>'
p33
sS'__format__'
p34
S'<built-in method __format__ of OperationalError object>'
p35
sS'__class__'
p36
S"<class 'sqlite3.OperationalError'>"
p37
sS'__doc__'
p38
S'None'
p39
sS'__getitem__'
p40
S"<method-wrapper '__getitem__' of OperationalError object>"
p41
sS'__setstate__'
p42
S'<built-in method __setstate__ of OperationalError object>'
p43
sS'__getattribute__'
p44
S"<method-wrapper '__getattribute__' of OperationalError object>"
p45
sS'args'
p46
S"('table Clothing already exists',)"
p47
sS'__subclasshook__'
p48
S'<built-in method __subclasshook__ of type object>'
p49
sS'__unicode__'
p50
S'<built-in method __unicode__ of OperationalError object>'
p51
sS'__delattr__'
p52
S"<method-wrapper '__delattr__' of OperationalError object>"
p53
sS'__repr__'
p54
S"<method-wrapper '__repr__' of OperationalError object>"
p55
sS'__hash__'
p56
S"<method-wrapper '__hash__' of OperationalError object>"
p57
ssS'evalue'
p58
S'table Clothing already exists'
p59
sS'request'
p60
cgluon.html
XML_unpickle
p61
(S's\x1ap\x00\x00<div><table><tr><td style="font-weight:bold;vertical-align:top;">ajax</td><td style="vertical-align:top;">:</td><td><div>True</div></td></tr><tr><td style="font-weight:bold;vertical-align:top;">application</td><td style="vertical-align:top;">:</td><td><div>yorock</div></td></tr><tr><td style="font-weight:bold;vertical-align:top;">args</td><td style="vertical-align:top;">:</td><td><div><table></table></div></td></tr><tr><td style="font-weight:bold;vertical-align:top;">cid</td><td style="vertical-align:top;">:</td><td><div>c537674936052</div></td></tr><tr><td style="font-weight:bold;vertical-align:top;">client</td><td style="vertical-align:top;">:</td><td><div>127.0.0.1</div></td></tr><tr><td style="font-weight:bold;vertical-align:top;">controller</td><td style="vertical-align:top;">:</td><td><div>appadmin</div></td></tr><tr><td style="font-weight:bold;vertical-align:top;">cookies</td><td style="vertical-align:top;">:</td><td><div><table><tr><td style="font-weight:bold;vertical-align:top;">session_id_admin</td><td style="vertical-align:top;">:</td><td><div>127.0.0.1-7c8254bf-5d84-40b6-afff-70919b3d6b80<table><tr><td style="font-weight:bold;vertical-align:top;">comment</td><td style="vertical-align:top;">:</td><td><div></div></td></tr><tr><td style="font-weight:bold;vertical-align:top;">domain</td><td style="vertical-align:top;">:</td><td><div></div></td></tr><tr><td style="font-weight:bold;vertical-align:top;">expires</td><td style="vertical-align:top;">:</td><td><div></div></td></tr><tr><td style="font-weight:bold;vertical-align:top;">httponly</td><td style="vertical-align:top;">:</td><td><div></div></td></tr><tr><td style="font-weight:bold;vertical-align:top;">max-age</td><td style="vertical-align:top;">:</td><td><div></div></td></tr><tr><td style="font-weight:bold;vertical-align:top;">path</td><td style="vertical-align:top;">:</td><td><div></div></td></tr><tr><td style="font-weight:bold;vertical-align:top;">secure</td><td style="vertical-align:top;">:</td><td><div></div></td></tr><tr><td style="font-weight:bold;vertical-align:top;">version</td><td style="vertical-align:top;">:</td><td><div></div></td></tr></table></div></td></tr><tr><td style="font-weight:bold;vertical-align:top;">session_id_final</td><td style="vertical-align:top;">:</td><td><div>127.0.0.1-646e6a66-c65d-4e36-8d13-7ed90795cd84<table><tr><td style="font-weight:bold;vertical-align:top;">comment</td><td style="vertical-align:top;">:</td><td><div></div></td></tr><tr><td style="font-weight:bold;vertical-align:top;">domain</td><td style="vertical-align:top;">:</td><td><div></div></td></tr><tr><td style="font-weight:bold;vertical-align:top;">expires</td><td style="vertical-align:top;">:</td><td><div></div></td></tr><tr><td style="font-weight:bold;vertical-align:top;">httponly</td><td style="vertical-align:top;">:</td><td><div></div></td></tr><tr><td style="font-weight:bold;vertical-align:top;">max-age</td><td style="vertical-align:top;">:</td><td><div></div></td></tr><tr><td style="font-weight:bold;vertical-align:top;">path</td><td style="vertical-align:top;">:</td><td><div></div></td></tr><tr><td style="font-weight:bold;vertical-align:top;">secure</td><td style="vertical-align:top;">:</td><td><div></div></td></tr><tr><td style="font-weight:bold;vertical-align:top;">version</td><td style="vertical-align:top;">:</td><td><div></div></td></tr></table></div></td></tr><tr><td style="font-weight:bold;vertical-align:top;">session_id_flipkart</td><td style="vertical-align:top;">:</td><td><div>127.0.0.1-cc900ff4-eb68-4466-b71e-b038cf3e6bbe<table><tr><td style="font-weight:bold;vertical-align:top;">comment</td><td style="vertical-align:top;">:</td><td><div></div></td></tr><tr><td style="font-weight:bold;vertical-align:top;">domain</td><td style="vertical-align:top;">:</td><td><div></div></td></tr><tr><td style="font-weight:bold;vertical-align:top;">expires</td><td style="vertical-align:top;">:</td><td><div></div></td></tr><tr><td style="font-weight:bold;vertical-align:top;">httponly</td><td style="vertical-align:top;">:</td><td><div></div></td></tr><tr><td style="font-weight:bold;vertical-align:top;">max-age</td><td style="vertical-align:top;">:</td><td><div></div></td></tr><tr><td style="font-weight:bold;vertical-align:top;">path</td><td style="vertical-align:top;">:</td><td><div></div></td></tr><tr><td style="font-weight:bold;vertical-align:top;">secure</td><td style="vertical-align:top;">:</td><td><div></div></td></tr><tr><td style="font-weight:bold;vertical-align:top;">version</td><td style="vertical-align:top;">:</td><td><div></div></td></tr></table></div></td></tr><tr><td style="font-weight:bold;vertical-align:top;">session_id_surfnget</td><td style="vertical-align:top;">:</td><td><div>127.0.0.1-5c8ce9c9-17c9-4699-804a-38091723eeef<table><tr><td style="font-weight:bold;vertical-align:top;">comment</td><td style="vertical-align:top;">:</td><td><div></div></td></tr><tr><td style="font-weight:bold;vertical-align:top;">domain</td><td style="vertical-align:top;">:</td><td><div></div></td></tr><tr><td style="font-weight:bold;vertical-align:top;">expires</td><td style="vertical-align:top;">:</td><td><div></div></td></tr><tr><td style="font-weight:bold;vertical-align:top;">httponly</td><td style="vertical-align:top;">:</td><td><div></div></td></tr><tr><td style="font-weight:bold;vertical-align:top;">max-age</td><td style="vertical-align:top;">:</td><td><div></div></td></tr><tr><td style="font-weight:bold;vertical-align:top;">path</td><td style="vertical-align:top;">:</td><td><div></div></td></tr><tr><td style="font-weight:bold;vertical-align:top;">secure</td><td style="vertical-align:top;">:</td><td><div></div></td></tr><tr><td style="font-weight:bold;vertical-align:top;">version</td><td style="vertical-align:top;">:</td><td><div></div></td></tr></table></div></td></tr><tr><td style="font-weight:bold;vertical-align:top;">session_id_welcome</td><td style="vertical-align:top;">:</td><td><div>127.0.0.1-ecc3d51e-9ac4-444d-9baa-7abfb64f9e44<table><tr><td style="font-weight:bold;vertical-align:top;">comment</td><td style="vertical-align:top;">:</td><td><div></div></td></tr><tr><td style="font-weight:bold;vertical-align:top;">domain</td><td style="vertical-align:top;">:</td><td><div></div></td></tr><tr><td style="font-weight:bold;vertical-align:top;">expires</td><td style="vertical-align:top;">:</td><td><div></div></td></tr><tr><td style="font-weight:bold;vertical-align:top;">httponly</td><td style="vertical-align:top;">:</td><td><div></div></td></tr><tr><td style="font-weight:bold;vertical-align:top;">max-age</td><td style="vertical-align:top;">:</td><td><div></div></td></tr><tr><td style="font-weight:bold;vertical-align:top;">path</td><td style="vertical-align:top;">:</td><td><div></div></td></tr><tr><td style="font-weight:bold;vertical-align:top;">secure</td><td style="vertical-align:top;">:</td><td><div></div></td></tr><tr><td style="font-weight:bold;vertical-align:top;">version</td><td style="vertical-align:top;">:</td><td><div></div></td></tr></table></div></td></tr><tr><td style="font-weight:bold;vertical-align:top;">session_id_yorock</td><td style="vertical-align:top;">:</td><td><div>127.0.0.1-2e45bd38-951a-456c-9ad4-e10b7820537a<table><tr><td style="font-weight:bold;vertical-align:top;">comment</td><td style="vertical-align:top;">:</td><td><div></div></td></tr><tr><td style="font-weight:bold;vertical-align:top;">domain</td><td style="vertical-align:top;">:</td><td><div></div></td></tr><tr><td style="font-weight:bold;vertical-align:top;">expires</td><td style="vertical-align:top;">:</td><td><div></div></td></tr><tr><td style="font-weight:bold;vertical-align:top;">httponly</td><td style="vertical-align:top;">:</td><td><div></div></td></tr><tr><td style="font-weight:bold;vertical-align:top;">max-age</td><td style="vertical-align:top;">:</td><td><div></div></td></tr><tr><td style="font-weight:bold;vertical-align:top;">path</td><td style="vertical-align:top;">:</td><td><div></div></td></tr><tr><td style="font-weight:bold;vertical-align:top;">secure</td><td style="vertical-align:top;">:</td><td><div></div></td></tr><tr><td style="font-weight:bold;vertical-align:top;">version</td><td style="vertical-align:top;">:</td><td><div></div></td></tr></table></div></td></tr></table></div></td></tr><tr><td style="font-weight:bold;vertical-align:top;">env</td><td style="vertical-align:top;">:</td><td><div><table><tr><td style="font-weight:bold;vertical-align:top;">HTTP_ACCEPT</td><td style="vertical-align:top;">:</td><td><div>*/*</div></td></tr><tr><td style="font-weight:bold;vertical-align:top;">HTTP_ACCEPT_ENCODING</td><td style="vertical-align:top;">:</td><td><div>gzip, deflate</div></td></tr><tr><td style="font-weight:bold;vertical-align:top;">HTTP_ACCEPT_LANGUAGE</td><td style="vertical-align:top;">:</td><td><div>en-US,en;q=0.5</div></td></tr><tr><td style="font-weight:bold;vertical-align:top;">HTTP_CONNECTION</td><td style="vertical-align:top;">:</td><td><div>keep-alive</div></td></tr><tr><td style="font-weight:bold;vertical-align:top;">HTTP_COOKIE</td><td style="vertical-align:top;">:</td><td><div>session_id_welcome=127.0.0.1-ecc3d51e-9ac4-444d-9baa-7abfb64f9e44; session_id_admin=127.0.0.1-7c8254bf-5d84-40b6-afff-70919b3d6b80; session_id_final=127.0.0.1-646e6a66-c65d-4e36-8d13-7ed90795cd84; session_id_flipkart=127.0.0.1-cc900ff4-eb68-4466-b71e-b038cf3e6bbe; session_id_surfnget=127.0.0.1-5c8ce9c9-17c9-4699-804a-38091723eeef; session_id_yorock=127.0.0.1-2e45bd38-951a-456c-9ad4-e10b7820537a</div></td></tr><tr><td style="font-weight:bold;vertical-align:top;">HTTP_HOST</td><td style="vertical-align:top;">:</td><td><div>127.0.0.1:8000</div></td></tr><tr><td style="font-weight:bold;vertical-align:top;">HTTP_REFERER</td><td style="vertical-align:top;">:</td><td><div>http://127.0.0.1:8000/admin/default/edit/yorock/controllers/accessories.py?id=controllers__accessories__py</div></td></tr><tr><td style="font-weight:bold;vertical-align:top;">HTTP_USER_AGENT</td><td style="vertical-align:top;">:</td><td><div>Mozilla/5.0 (X11; Ubuntu; Linux x86_64; rv:36.0) Gecko/20100101 Firefox/36.0</div></td></tr><tr><td style="font-weight:bold;vertical-align:top;">HTTP_WEB2PY_COMPONENT_ELEMENT</td><td style="vertical-align:top;">:</td><td><div>c537674936052</div></td></tr><tr><td style="font-weight:bold;vertical-align:top;">HTTP_WEB2PY_COMPONENT_LOCATION</td><td style="vertical-align:top;">:</td><td><div>http://127.0.0.1:8000/admin/default/edit/yorock/controllers/accessories.py?id=controllers__accessories__py</div></td></tr><tr><td style="font-weight:bold;vertical-align:top;">HTTP_X_REQUESTED_WITH</td><td style="vertical-align:top;">:</td><td><div>XMLHttpRequest</div></td></tr><tr><td style="font-weight:bold;vertical-align:top;">PATH_INFO</td><td style="vertical-align:top;">:</td><td><div>/yorock/appadmin/hooks</div></td></tr><tr><td style="font-weight:bold;vertical-align:top;">QUERY_STRING</td><td style="vertical-align:top;">:</td><td><div></div></td></tr><tr><td style="font-weight:bold;vertical-align:top;">REMOTE_ADDR</td><td style="vertical-align:top;">:</td><td><div>127.0.0.1</div></td></tr><tr><td style="font-weight:bold;vertical-align:top;">REMOTE_PORT</td><td style="vertical-align:top;">:</td><td><div>55476</div></td></tr><tr><td style="font-weight:bold;vertical-align:top;">REQUEST_METHOD</td><td style="vertical-align:top;">:</td><td><div>GET</div></td></tr><tr><td style="font-weight:bold;vertical-align:top;">SCRIPT_NAME</td><td style="vertical-align:top;">:</td><td><div></div></td></tr><tr><td style="font-weight:bold;vertical-align:top;">SERVER_NAME</td><td style="vertical-align:top;">:</td><td><div>pratyusha-ThinkPad-T420</div></td></tr><tr><td style="font-weight:bold;vertical-align:top;">SERVER_PORT</td><td style="vertical-align:top;">:</td><td><div>8000</div></td></tr><tr><td style="font-weight:bold;vertical-align:top;">SERVER_PROTOCOL</td><td style="vertical-align:top;">:</td><td><div>HTTP/1.1</div></td></tr><tr><td style="font-weight:bold;vertical-align:top;">SERVER_SOFTWARE</td><td style="vertical-align:top;">:</td><td><div>Rocket 1.2.6</div></td></tr><tr><td style="font-weight:bold;vertical-align:top;">app_folders</td><td style="vertical-align:top;">:</td><td><div>set([&#x27;/home/pratyusha/web2py/applications/yorock/&#x27;, &#x27;/home/pratyusha/web2py/applications/welcome/&#x27;, &#x27;/home/pratyusha/web2py/applications/admin/&#x27;, &#x27;/home/pratyusha/web2py/applications/final/&#x27;])</div></td></tr><tr><td style="font-weight:bold;vertical-align:top;">applications_parent</td><td style="vertical-align:top;">:</td><td><div>/home/pratyusha/web2py</div></td></tr><tr><td style="font-weight:bold;vertical-align:top;">cmd_args</td><td style="vertical-align:top;">:</td><td><div><table></table></div></td></tr><tr><td style="font-weight:bold;vertical-align:top;">cmd_options</td><td style="vertical-align:top;">:</td><td><div>&lt;Values at 0x7fcdc6c957a0: {&#x27;verbose&#x27;: False, &#x27;ip&#x27;: &#x27;127.0.0.1&#x27;, &#x27;debuglevel&#x27;: 30, &#x27;with_scheduler&#x27;: False, &#x27;ips&#x27;: [&#x27;127.0.1.1&#x27;], &#x27;shutdown_timeout&#x27;: 5, &#x27;taskbar&#x27;: False, &#x27;with_coverage&#x27;: False, &#x27;scheduler_groups&#x27;: None, &#x27;port&#x27;: 8000, &#x27;maxthreads&#x27;: None, &#x27;softcron&#x27;: False, &#x27;server_name&#x27;: &#x27;pratyusha-ThinkPad-T420&#x27;, &#x27;bpython&#x27;: False, &#x27;nogui&#x27;: True, &#x27;pid_filename&#x27;: &#x27;httpserver.pid&#x27;, &#x27;print_errors&#x27;: False, &#x27;extcron&#x27;: False, &#x27;runcron&#x27;: False, &#x27;run_system_tests&#x27;: False, &#x27;test&#x27;: None, &#x27;folder&#x27;: &#x27;/home/pratyusha/web2py&#x27;, &#x27;config&#x27;: &#x27;&#x27;, &#x27;minthreads&#x27;: None, &#x27;shell&#x27;: None, &#x27;run&#x27;: &#x27;&#x27;, &#x27;log_filename&#x27;: &#x27;httpserver.log&#x27;, &#x27;profiler_dir&#x27;: None, &#x27;args&#x27;: [&#x27;&#x27;], &#x27;socket_timeout&#x27;: 5, &#x27;ssl_ca_certificate&#x27;: None, &#x27;scheduler&#x27;: None, &#x27;interfaces&#x27;: None, &#x27;ssl_private_key&#x27;: &#x27;&#x27;, &#x27;gae&#x27;: None, &#x27;password&#x27;: &#x27;prat&#x27;, &#x27;request_queue_size&#x27;: 5, &#x27;ssl_certificate&#x27;: &#x27;&#x27;, &#x27;cronjob&#x27;: False, &#x27;numthreads&#x27;: None, &#x27;quiet&#x27;: False, &#x27;import_models&#x27;: False, &#x27;timeout&#x27;: 10, &#x27;plain&#x27;: False, &#x27;nobanner&#x27;: False}&gt;</div></td></tr><tr><td style="font-weight:bold;vertical-align:top;">db_sessions</td><td style="vertical-align:top;">:</td><td><div>set([])</div></td></tr><tr><td style="font-weight:bold;vertical-align:top;">debugging</td><td style="vertical-align:top;">:</td><td><div>True</div></td></tr><tr><td style="font-weight:bold;vertical-align:top;">gluon_parent</td><td style="vertical-align:top;">:</td><td><div>/home/pratyusha/web2py</div></td></tr><tr><td style="font-weight:bold;vertical-align:top;">http_accept</td><td style="vertical-align:top;">:</td><td><div>*/*</div></td></tr><tr><td style="font-weight:bold;vertical-align:top;">http_accept_encoding</td><td style="vertical-align:top;">:</td><td><div>gzip, deflate</div></td></tr><tr><td style="font-weight:bold;vertical-align:top;">http_accept_language</td><td style="vertical-align:top;">:</td><td><div>en-US,en;q=0.5</div></td></tr><tr><td style="font-weight:bold;vertical-align:top;">http_connection</td><td style="vertical-align:top;">:</td><td><div>keep-alive</div></td></tr><tr><td style="font-weight:bold;vertical-align:top;">http_cookie</td><td style="vertical-align:top;">:</td><td><div>session_id_welcome=127.0.0.1-ecc3d51e-9ac4-444d-9baa-7abfb64f9e44; session_id_admin=127.0.0.1-7c8254bf-5d84-40b6-afff-70919b3d6b80; session_id_final=127.0.0.1-646e6a66-c65d-4e36-8d13-7ed90795cd84; session_id_flipkart=127.0.0.1-cc900ff4-eb68-4466-b71e-b038cf3e6bbe; session_id_surfnget=127.0.0.1-5c8ce9c9-17c9-4699-804a-38091723eeef; session_id_yorock=127.0.0.1-2e45bd38-951a-456c-9ad4-e10b7820537a</div></td></tr><tr><td style="font-weight:bold;vertical-align:top;">http_host</td><td style="vertical-align:top;">:</td><td><div>127.0.0.1:8000</div></td></tr><tr><td style="font-weight:bold;vertical-align:top;">http_referer</td><td style="vertical-align:top;">:</td><td><div>http://127.0.0.1:8000/admin/default/edit/yorock/controllers/accessories.py?id=controllers__accessories__py</div></td></tr><tr><td style="font-weight:bold;vertical-align:top;">http_user_agent</td><td style="vertical-align:top;">:</td><td><div>Mozilla/5.0 (X11; Ubuntu; Linux x86_64; rv:36.0) Gecko/20100101 Firefox/36.0</div></td></tr><tr><td style="font-weight:bold;vertical-align:top;">http_web2py_component_element</td><td style="vertical-align:top;">:</td><td><div>c537674936052</div></td></tr><tr><td style="font-weight:bold;vertical-align:top;">http_web2py_component_location</td><td style="vertical-align:top;">:</td><td><div>http://127.0.0.1:8000/admin/default/edit/yorock/controllers/accessories.py?id=controllers__accessories__py</div></td></tr><tr><td style="font-weight:bold;vertical-align:top;">http_x_requested_with</td><td style="vertical-align:top;">:</td><td><div>XMLHttpRequest</div></td></tr><tr><td style="font-weight:bold;vertical-align:top;">is_jython</td><td style="vertical-align:top;">:</td><td><div>False</div></td></tr><tr><td style="font-weight:bold;vertical-align:top;">is_pypy</td><td style="vertical-align:top;">:</td><td><div>False</div></td></tr><tr><td style="font-weight:bold;vertical-align:top;">is_source</td><td style="vertical-align:top;">:</td><td><div>True</div></td></tr><tr><td style="font-weight:bold;vertical-align:top;">local_hosts</td><td style="vertical-align:top;">:</td><td><div><table><tr><td><div>::1</div></td></tr><tr><td><div>127.0.1.1</div></td></tr><tr><td><div>::ffff:127.0.0.1</div></td></tr><tr><td><div>127.0.0.1</div></td></tr><tr><td><div>pratyusha-ThinkPad-T420</div></td></tr></table></div></td></tr><tr><td style="font-weight:bold;vertical-align:top;">path_info</td><td style="vertical-align:top;">:</td><td><div>/yorock/appadmin/hooks</div></td></tr><tr><td style="font-weight:bold;vertical-align:top;">query_string</td><td style="vertical-align:top;">:</td><td><div></div></td></tr><tr><td style="font-weight:bold;vertical-align:top;">remote_addr</td><td style="vertical-align:top;">:</td><td><div>127.0.0.1</div></td></tr><tr><td style="font-weight:bold;vertical-align:top;">remote_port</td><td style="vertical-align:top;">:</td><td><div>55476</div></td></tr><tr><td style="font-weight:bold;vertical-align:top;">request_method</td><td style="vertical-align:top;">:</td><td><div>GET</div></td></tr><tr><td style="font-weight:bold;vertical-align:top;">request_uri</td><td style="vertical-align:top;">:</td><td><div>/yorock/appadmin/hooks</div></td></tr><tr><td style="font-weight:bold;vertical-align:top;">script_name</td><td style="vertical-align:top;">:</td><td><div></div></td></tr><tr><td style="font-weight:bold;vertical-align:top;">server_name</td><td style="vertical-align:top;">:</td><td><div>pratyusha-ThinkPad-T420</div></td></tr><tr><td style="font-weight:bold;vertical-align:top;">server_port</td><td style="vertical-align:top;">:</td><td><div>8000</div></td></tr><tr><td style="font-weight:bold;vertical-align:top;">server_protocol</td><td style="vertical-align:top;">:</td><td><div>HTTP/1.1</div></td></tr><tr><td style="font-weight:bold;vertical-align:top;">server_software</td><td style="vertical-align:top;">:</td><td><div>Rocket 1.2.6</div></td></tr><tr><td style="font-weight:bold;vertical-align:top;">web2py_path</td><td style="vertical-align:top;">:</td><td><div>/home/pratyusha/web2py</div></td></tr><tr><td style="font-weight:bold;vertical-align:top;">web2py_version</td><td style="vertical-align:top;">:</td><td><div>2.10.3-stable+timestamp.2015.04.02.21.42.07</div></td></tr><tr><td style="font-weight:bold;vertical-align:top;">wsgi.errors</td><td style="vertical-align:top;">:</td><td><div>&lt;open file &#x27;&lt;stderr&gt;&#x27;, mode &#x27;w&#x27; at 0x7fcdcae8f1e0&gt;</div></td></tr><tr><td style="font-weight:bold;vertical-align:top;">wsgi.file_wrapper</td><td style="vertical-align:top;">:</td><td><div>&lt;class wsgiref.util.FileWrapper at 0x7fcdc67f54c8&gt;</div></td></tr><tr><td style="font-weight:bold;vertical-align:top;">wsgi.input</td><td style="vertical-align:top;">:</td><td><div>&lt;socket._fileobject object at 0x7fcdc6cc8050&gt;</div></td></tr><tr><td style="font-weight:bold;vertical-align:top;">wsgi.multiprocess</td><td style="vertical-align:top;">:</td><td><div>False</div></td></tr><tr><td style="font-weight:bold;vertical-align:top;">wsgi.multithread</td><td style="vertical-align:top;">:</td><td><div>True</div></td></tr><tr><td style="font-weight:bold;vertical-align:top;">wsgi.run_once</td><td style="vertical-align:top;">:</td><td><div>False</div></td></tr><tr><td style="font-weight:bold;vertical-align:top;">wsgi.url_scheme</td><td style="vertical-align:top;">:</td><td><div>http</div></td></tr><tr><td style="font-weight:bold;vertical-align:top;">wsgi.version</td><td style="vertical-align:top;">:</td><td><div><table><tr><td><div>1</div></td></tr><tr><td><div>0</div></td></tr></table></div></td></tr><tr><td style="font-weight:bold;vertical-align:top;">wsgi_errors</td><td style="vertical-align:top;">:</td><td><div>&lt;open file &#x27;&lt;stderr&gt;&#x27;, mode &#x27;w&#x27; at 0x7fcdcae8f1e0&gt;</div></td></tr><tr><td style="font-weight:bold;vertical-align:top;">wsgi_file_wrapper</td><td style="vertical-align:top;">:</td><td><div>&lt;class wsgiref.util.FileWrapper at 0x7fcdc67f54c8&gt;</div></td></tr><tr><td style="font-weight:bold;vertical-align:top;">wsgi_input</td><td style="vertical-align:top;">:</td><td><div>&lt;socket._fileobject object at 0x7fcdc6cc8050&gt;</div></td></tr><tr><td style="font-weight:bold;vertical-align:top;">wsgi_multiprocess</td><td style="vertical-align:top;">:</td><td><div>False</div></td></tr><tr><td style="font-weight:bold;vertical-align:top;">wsgi_multithread</td><td style="vertical-align:top;">:</td><td><div>True</div></td></tr><tr><td style="font-weight:bold;vertical-align:top;">wsgi_run_once</td><td style="vertical-align:top;">:</td><td><div>False</div></td></tr><tr><td style="font-weight:bold;vertical-align:top;">wsgi_url_scheme</td><td style="vertical-align:top;">:</td><td><div>http</div></td></tr><tr><td style="font-weight:bold;vertical-align:top;">wsgi_version</td><td style="vertical-align:top;">:</td><td><div><table><tr><td><div>1</div></td></tr><tr><td><div>0</div></td></tr></table></div></td></tr></table></div></td></tr><tr><td style="font-weight:bold;vertical-align:top;">extension</td><td style="vertical-align:top;">:</td><td><div>html</div></td></tr><tr><td style="font-weight:bold;vertical-align:top;">folder</td><td style="vertical-align:top;">:</td><td><div>/home/pratyusha/web2py/applications/yorock/</div></td></tr><tr><td style="font-weight:bold;vertical-align:top;">function</td><td style="vertical-align:top;">:</td><td><div>hooks</div></td></tr><tr><td style="font-weight:bold;vertical-align:top;">global_settings</td><td style="vertical-align:top;">:</td><td><div><table><tr><td style="font-weight:bold;vertical-align:top;">app_folders</td><td style="vertical-align:top;">:</td><td><div>set([&#x27;/home/pratyusha/web2py/applications/yorock/&#x27;, &#x27;/home/pratyusha/web2py/applications/welcome/&#x27;, &#x27;/home/pratyusha/web2py/applications/admin/&#x27;, &#x27;/home/pratyusha/web2py/applications/final/&#x27;])</div></td></tr><tr><td style="font-weight:bold;vertical-align:top;">applications_parent</td><td style="vertical-align:top;">:</td><td><div>/home/pratyusha/web2py</div></td></tr><tr><td style="font-weight:bold;vertical-align:top;">cmd_args</td><td style="vertical-align:top;">:</td><td><div><table></table></div></td></tr><tr><td style="font-weight:bold;vertical-align:top;">cmd_options</td><td style="vertical-align:top;">:</td><td><div>&lt;Values at 0x7fcdc6c957a0: {&#x27;verbose&#x27;: False, &#x27;ip&#x27;: &#x27;127.0.0.1&#x27;, &#x27;debuglevel&#x27;: 30, &#x27;with_scheduler&#x27;: False, &#x27;ips&#x27;: [&#x27;127.0.1.1&#x27;], &#x27;shutdown_timeout&#x27;: 5, &#x27;taskbar&#x27;: False, &#x27;with_coverage&#x27;: False, &#x27;scheduler_groups&#x27;: None, &#x27;port&#x27;: 8000, &#x27;maxthreads&#x27;: None, &#x27;softcron&#x27;: False, &#x27;server_name&#x27;: &#x27;pratyusha-ThinkPad-T420&#x27;, &#x27;bpython&#x27;: False, &#x27;nogui&#x27;: True, &#x27;pid_filename&#x27;: &#x27;httpserver.pid&#x27;, &#x27;print_errors&#x27;: False, &#x27;extcron&#x27;: False, &#x27;runcron&#x27;: False, &#x27;run_system_tests&#x27;: False, &#x27;test&#x27;: None, &#x27;folder&#x27;: &#x27;/home/pratyusha/web2py&#x27;, &#x27;config&#x27;: &#x27;&#x27;, &#x27;minthreads&#x27;: None, &#x27;shell&#x27;: None, &#x27;run&#x27;: &#x27;&#x27;, &#x27;log_filename&#x27;: &#x27;httpserver.log&#x27;, &#x27;profiler_dir&#x27;: None, &#x27;args&#x27;: [&#x27;&#x27;], &#x27;socket_timeout&#x27;: 5, &#x27;ssl_ca_certificate&#x27;: None, &#x27;scheduler&#x27;: None, &#x27;interfaces&#x27;: None, &#x27;ssl_private_key&#x27;: &#x27;&#x27;, &#x27;gae&#x27;: None, &#x27;password&#x27;: &#x27;prat&#x27;, &#x27;request_queue_size&#x27;: 5, &#x27;ssl_certificate&#x27;: &#x27;&#x27;, &#x27;cronjob&#x27;: False, &#x27;numthreads&#x27;: None, &#x27;quiet&#x27;: False, &#x27;import_models&#x27;: False, &#x27;timeout&#x27;: 10, &#x27;plain&#x27;: False, &#x27;nobanner&#x27;: False}&gt;</div></td></tr><tr><td style="font-weight:bold;vertical-align:top;">db_sessions</td><td style="vertical-align:top;">:</td><td><div>set([])</div></td></tr><tr><td style="font-weight:bold;vertical-align:top;">debugging</td><td style="vertical-align:top;">:</td><td><div>True</div></td></tr><tr><td style="font-weight:bold;vertical-align:top;">gluon_parent</td><td style="vertical-align:top;">:</td><td><div>/home/pratyusha/web2py</div></td></tr><tr><td style="font-weight:bold;vertical-align:top;">is_jython</td><td style="vertical-align:top;">:</td><td><div>False</div></td></tr><tr><td style="font-weight:bold;vertical-align:top;">is_pypy</td><td style="vertical-align:top;">:</td><td><div>False</div></td></tr><tr><td style="font-weight:bold;vertical-align:top;">is_source</td><td style="vertical-align:top;">:</td><td><div>True</div></td></tr><tr><td style="font-weight:bold;vertical-align:top;">local_hosts</td><td style="vertical-align:top;">:</td><td><div><table><tr><td><div>::1</div></td></tr><tr><td><div>127.0.1.1</div></td></tr><tr><td><div>::ffff:127.0.0.1</div></td></tr><tr><td><div>127.0.0.1</div></td></tr><tr><td><div>pratyusha-ThinkPad-T420</div></td></tr></table></div></td></tr><tr><td style="font-weight:bold;vertical-align:top;">web2py_version</td><td style="vertical-align:top;">:</td><td><div>2.10.3-stable+timestamp.2015.04.02.21.42.07</div></td></tr></table></div></td></tr><tr><td style="font-weight:bold;vertical-align:top;">is_https</td><td style="vertical-align:top;">:</td><td><div>False</div></td></tr><tr><td style="font-weight:bold;vertical-align:top;">is_local</td><td style="vertical-align:top;">:</td><td><div>True</div></td></tr><tr><td style="font-weight:bold;vertical-align:top;">is_restful</td><td style="vertical-align:top;">:</td><td><div>False</div></td></tr><tr><td style="font-weight:bold;vertical-align:top;">is_sheduler</td><td style="vertical-align:top;">:</td><td><div>None</div></td></tr><tr><td style="font-weight:bold;vertical-align:top;">is_shell</td><td style="vertical-align:top;">:</td><td><div>None</div></td></tr><tr><td style="font-weight:bold;vertical-align:top;">now</td><td style="vertical-align:top;">:</td><td><div>datetime.datetime(2015, 5, 2, 23, 11, 44, 126687)</div></td></tr><tr><td style="font-weight:bold;vertical-align:top;">raw_args</td><td style="vertical-align:top;">:</td><td><div></div></td></tr><tr><td style="font-weight:bold;vertical-align:top;">raw_extension</td><td style="vertical-align:top;">:</td><td><div>None</div></td></tr><tr><td style="font-weight:bold;vertical-align:top;">url</td><td style="vertical-align:top;">:</td><td><div>/yorock/appadmin/hooks</div></td></tr><tr><td style="font-weight:bold;vertical-align:top;">utcnow</td><td style="vertical-align:top;">:</td><td><div>datetime.datetime(2015, 5, 2, 17, 41, 44, 126701)</div></td></tr><tr><td style="font-weight:bold;vertical-align:top;">uuid</td><td style="vertical-align:top;">:</td><td><div>yorock/127.0.0.1.2015-05-02.23-11-44.91888fc3-b534-4da1-aa9f-6b214116b762</div></td></tr><tr><td style="font-weight:bold;vertical-align:top;">wsgi</td><td style="vertical-align:top;">:</td><td><div>&lt;gluon.main.LazyWSGI object at 0x7fcdb4053810&gt;</div></td></tr></table></div>'
tRp62
sS'frames'
p63
(lp64
(dp65
S'file'
p66
S'/home/pratyusha/web2py/gluon/restricted.py'
p67
sS'dump'
p68
(dp69
S'environment'
p70
S"{'A': <class 'gluon.html.A'>, 'ANY_OF': <class 'gluon.validators.ANY_OF'>, 'ASSIGNJS': <function ASSIGNJS>, 'AppConfig': <function AppConfig>, 'Auth': <class 'gluon.tools.Auth'>, 'B': <class 'gluon.html.B'>, 'BEAUTIFY': <class 'gluon.html.BEAUTIFY'>, 'BODY': <class 'gluon.html.BODY'>, 'BR': <class 'gluon.html.BR'>, 'BUTTON': <class 'gluon.html.BUTTON'>, ...}"
p71
sS'ccode'
p72
S'<code object <module> at 0x7fcdb452df30, file "/...eb2py/applications/yorock/models/db.py", line 11>'
p73
ssS'lnum'
p74
I227
sS'lines'
p75
(dp76
I224
S'            ccode = code'
p77
sI225
S'        else:'
p78
sI226
S'            ccode = compile2(code, layer)'
p79
sI227
S'        exec ccode in environment'
p80
sI228
S'    except HTTP:'
p81
sI229
S'        raise'
p82
sI230
S'    except RestrictedError:'
p83
sI231
S'        # do not encapsulate (obfuscate) the original RestrictedError'
p84
sI222
S'    try:'
p85
sI223
S'        if isinstance(code, types.CodeType):'
p86
ssS'call'
p87
S'(code="################################################...d\'),\\n    )\\n\\n\\n\\n\\nauth.enable_record_versioning(db)\\n", environment={\'A\': <class \'gluon.html.A\'>, \'ANY_OF\': <class \'gluon.validators.ANY_OF\'>, \'ASSIGNJS\': <function ASSIGNJS>, \'AppConfig\': <function AppConfig>, \'Auth\': <class \'gluon.tools.Auth\'>, \'B\': <class \'gluon.html.B\'>, \'BEAUTIFY\': <class \'gluon.html.BEAUTIFY\'>, \'BODY\': <class \'gluon.html.BODY\'>, \'BR\': <class \'gluon.html.BR\'>, \'BUTTON\': <class \'gluon.html.BUTTON\'>, ...}, layer=\'/home/pratyusha/web2py/applications/yorock/models/db.py\')'
p88
sS'func'
p89
S'restricted'
p90
sa(dp91
g66
S'/home/pratyusha/web2py/applications/yorock/models/db.py'
p92
sg68
(dp93
S'Field'
p94
S"<class 'pydal.objects.Field'>"
p95
ssg74
I178
sg75
(dp96
I173
S'    )'
p97
sI174
S"db.define_table('Clothing',"
p98
sI175
S"    Field('name','string',requires=IS_NOT_EMPTY(),unique=True),"
p99
sI176
S"    Field('price','integer',requires=IS_NOT_EMPTY()),"
p100
sI177
S"    Field('description','text'),"
p101
sI178
S"    Field('image','upload'),"
p102
sI179
S'    )'
p103
sI180
S"db.define_table('Footwear',"
p104
sI181
S"    Field('name','string',requires=IS_NOT_EMPTY(),unique=True),"
p105
sI182
S"    Field('price','integer',requires=IS_NOT_EMPTY()),"
p106
ssg87
S'()'
p107
sg89
S'<module>'
p108
sa(dp109
g66
S'/home/pratyusha/web2py/gluon/packages/dal/pydal/base.py'
p110
sg68
(dp111
S'fields'
p112
S'(<pydal.objects.Field object>, <pydal.objects.Field object>, <pydal.objects.Field object>, <pydal.objects.Field object>)'
p113
sS'self'
p114
S'<DAL uri="sqlite://storage.sqlite">'
p115
sS'args'
p116
g21
sS'tablename'
p117
S"'Clothing'"
p118
sS'table'
p119
S'undefined'
p120
sS'self.lazy_define_table'
p121
S'<bound method DAL.lazy_define_table of <DAL uri="sqlite://storage.sqlite">>'
p122
ssg74
I814
sg75
(dp123
I809
S'                    % (tablename,invalid_args))'
p124
sI810
S'        if self._lazy_tables and tablename not in self._LAZY_TABLES:'
p125
sI811
S'            self._LAZY_TABLES[tablename] = (tablename,fields,args)'
p126
sI812
S'            table = None'
p127
sI813
S'        else:'
p128
sI814
S'            table = self.lazy_define_table(tablename,*fields,**args)'
p129
sI815
S'        if not tablename in self.tables:'
p130
sI816
S'            self.tables.append(tablename)'
p131
sI817
S'        return table'
p132
sI818
S''
ssg87
S'(self=<DAL uri="sqlite://storage.sqlite">, tablename=\'Clothing\', *fields=(<pydal.objects.Field object>, <pydal.objects.Field object>, <pydal.objects.Field object>, <pydal.objects.Field object>), **args={})'
p133
sg89
S'define_table'
p134
sa(dp135
g66
S'/home/pratyusha/web2py/gluon/packages/dal/pydal/base.py'
p136
sg68
(dp137
S'polymodel'
p138
S'None'
p139
ssg74
I853
sg75
(dp140
I848
S'            try:'
p141
sI849
S'                GLOBAL_LOCKER.acquire()'
p142
sI850
S'                self._lastsql = self._adapter.create_table('
p143
sI851
S'                    table,migrate=migrate,'
p144
sI852
S'                    fake_migrate=fake_migrate,'
p145
sI853
S'                    polymodel=polymodel)'
p146
sI854
S'            finally:'
p147
sI855
S'                GLOBAL_LOCKER.release()'
p148
sI856
S'        else:'
p149
sI857
S'            table._dbt = None'
p150
ssg87
S'(self=<DAL uri="sqlite://storage.sqlite">, tablename=\'Clothing\', *fields=(<pydal.objects.Field object>, <pydal.objects.Field object>, <pydal.objects.Field object>, <pydal.objects.Field object>), **args={})'
p151
sg89
S'lazy_define_table'
p152
sa(dp153
g66
S'/home/pratyusha/web2py/gluon/packages/dal/pydal/adapters/base.py'
p154
sg68
(dp155
S'query'
p156
S"'CREATE TABLE Clothing(\\n    id INTEGER PRIMARY KE...GER,\\n    description TEXT,\\n    image CHAR(512)\\n);'"
p157
sS'self'
p158
S'<pydal.adapters.sqlite.SQLiteAdapter object>'
p159
sS'table'
p160
S'<Table Clothing (id,name,price,description,image)>'
p161
sS'self.create_sequence_and_triggers'
p162
S'<bound method SQLiteAdapter.create_sequence_and_... of <pydal.adapters.sqlite.SQLiteAdapter object>>'
p163
ssg74
I463
sg75
(dp164
I458
S'            if table._dbt:'
p165
sI459
S"                self.log('timestamp: %s\\n%s\\n'"
p166
sI460
S'                         % (datetime.datetime.today().isoformat(),'
p167
sI461
S'                            query), table)'
p168
sI462
S'            if not fake_migrate:'
p169
sI463
S'                self.create_sequence_and_triggers(query,table)'
p170
sI464
S'                table._db.commit()'
p171
sI465
S'                # Postgres geom fields are added now,'
p172
sI466
S'                # after the table has been created'
p173
sI467
S'                for query in postcreation_fields:'
p174
ssg87
S'(self=<pydal.adapters.sqlite.SQLiteAdapter object>, table=<Table Clothing (id,name,price,description,image)>, migrate=True, fake_migrate=False, polymodel=None)'
p175
sg89
S'create_table'
p176
sa(dp177
g66
S'/home/pratyusha/web2py/gluon/packages/dal/pydal/adapters/base.py'
p178
sg68
(dp179
S'query'
p180
S"'CREATE TABLE Clothing(\\n    id INTEGER PRIMARY KE...GER,\\n    description TEXT,\\n    image CHAR(512)\\n);'"
p181
sS'self'
p182
S'<pydal.adapters.sqlite.SQLiteAdapter object>'
p183
sS'self.execute'
p184
S'<bound method SQLiteAdapter.execute of <pydal.adapters.sqlite.SQLiteAdapter object>>'
p185
ssg74
I1307
sg75
(dp186
I1302
S''
sI1303
S'    def constraint_name(self, table, fieldname):'
p187
sI1304
S"        return '%s_%s__constraint' % (table,fieldname)"
p188
sI1305
S''
sI1306
S'    def create_sequence_and_triggers(self, query, table, **args):'
p189
sI1307
S'        self.execute(query)'
p190
sI1308
S''
sI1309
S''
sI1310
S'    def log_execute(self, *a, **b):'
p191
sI1311
S'        if not self.connection: raise ValueError(a[0])'
p192
ssg87
S"(self=<pydal.adapters.sqlite.SQLiteAdapter object>, query='CREATE TABLE Clothing(\\n    id INTEGER PRIMARY KE...GER,\\n    description TEXT,\\n    image CHAR(512)\\n);', table=<Table Clothing (id,name,price,description,image)>, **args={})"
p193
sg89
S'create_sequence_and_triggers'
p194
sa(dp195
g66
S'/home/pratyusha/web2py/gluon/packages/dal/pydal/adapters/base.py'
p196
sg68
(dp197
S'a'
S"('CREATE TABLE Clothing(\\n    id INTEGER PRIMARY KE...GER,\\n    description TEXT,\\n    image CHAR(512)\\n);',)"
p198
sS'self'
p199
S'<pydal.adapters.sqlite.SQLiteAdapter object>'
p200
sS'b'
g21
sS'self.log_execute'
p201
S'<bound method SQLiteAdapter.log_execute of <pydal.adapters.sqlite.SQLiteAdapter object>>'
p202
ssg74
I1326
sg75
(dp203
I1321
S'        self.db._timings.append((command,time.time()-t0))'
p204
sI1322
S'        del self.db._timings[:-TIMINGSSIZE]'
p205
sI1323
S'        return ret'
p206
sI1324
S''
sI1325
S'    def execute(self, *a, **b):'
p207
sI1326
S'        return self.log_execute(*a, **b)'
p208
sI1327
S''
sI1328
S'    def represent(self, obj, fieldtype):'
p209
sI1329
S'        field_is_type = fieldtype.startswith'
p210
sI1330
S'        if isinstance(obj, CALLABLETYPES):'
p211
ssg87
S"(self=<pydal.adapters.sqlite.SQLiteAdapter object>, *a=('CREATE TABLE Clothing(\\n    id INTEGER PRIMARY KE...GER,\\n    description TEXT,\\n    image CHAR(512)\\n);',), **b={})"
p212
sg89
S'execute'
p213
sa(dp214
g66
S'/home/pratyusha/web2py/gluon/packages/dal/pydal/adapters/base.py'
p215
sg68
(dp216
S'a'
S"('CREATE TABLE Clothing(\\n    id INTEGER PRIMARY KE...GER,\\n    description TEXT,\\n    image CHAR(512)\\n);',)"
p217
sS'b'
g21
sS'self'
p218
S'<pydal.adapters.sqlite.SQLiteAdapter object>'
p219
sS'ret'
p220
g120
sS'self.cursor'
p221
S'<sqlite3.Cursor object>'
p222
sS'command'
p223
S"'CREATE TABLE Clothing(\\n    id INTEGER PRIMARY KE...GER,\\n    description TEXT,\\n    image CHAR(512)\\n);'"
p224
sS'self.cursor.execute'
p225
S'<built-in method execute of sqlite3.Cursor object>'
p226
ssg74
I1320
sg75
(dp227
I1315
S'            command = self.filter_sql_command(command)'
p228
sI1316
S'        if self.db._debug:'
p229
sI1317
S"            self.db.logger.debug('SQL: %s' % command)"
p230
sI1318
S'        self.db._lastsql = command'
p231
sI1319
S'        t0 = time.time()'
p232
sI1320
S'        ret = self.cursor.execute(command, *a[1:], **b)'
p233
sI1321
S'        self.db._timings.append((command,time.time()-t0))'
p234
sI1322
S'        del self.db._timings[:-TIMINGSSIZE]'
p235
sI1323
S'        return ret'
p236
sI1324
S''
ssg87
S"(self=<pydal.adapters.sqlite.SQLiteAdapter object>, *a=('CREATE TABLE Clothing(\\n    id INTEGER PRIMARY KE...GER,\\n    description TEXT,\\n    image CHAR(512)\\n);',), **b={})"
p237
sg89
S'log_execute'
p238
sasS'pyver'
p239
S'Python 2.7.8: /usr/bin/python (prefix: /usr)'
p240
sS'session'
p241
g61
(S's;\x01\x00\x00<div><table><tr><td style="font-weight:bold;vertical-align:top;">last_orderby</td><td style="vertical-align:top;">:</td><td><div>None</div></td></tr><tr><td style="font-weight:bold;vertical-align:top;">last_query</td><td style="vertical-align:top;">:</td><td><div>db.auth_group.id&gt;0</div></td></tr></table></div>'
tRp242
sS'etype'
p243
S"<class 'sqlite3.OperationalError'>"
p244
sS'date'
p245
S'Sat May  2 23:11:44 2015'
p246
sS'response'
p247
g61
(S's\xf6\x17\x00\x00<div><table><tr><td style="font-weight:bold;vertical-align:top;">body</td><td style="vertical-align:top;">:</td><td><div>&lt;cStringIO.StringO object at 0x7fcdb4453998&gt;</div></td></tr><tr><td style="font-weight:bold;vertical-align:top;">cookies</td><td style="vertical-align:top;">:</td><td><div><table><tr><td style="font-weight:bold;vertical-align:top;">session_id_yorock</td><td style="vertical-align:top;">:</td><td><div>127.0.0.1-2e45bd38-951a-456c-9ad4-e10b7820537a<table><tr><td style="font-weight:bold;vertical-align:top;">comment</td><td style="vertical-align:top;">:</td><td><div></div></td></tr><tr><td style="font-weight:bold;vertical-align:top;">domain</td><td style="vertical-align:top;">:</td><td><div></div></td></tr><tr><td style="font-weight:bold;vertical-align:top;">expires</td><td style="vertical-align:top;">:</td><td><div></div></td></tr><tr><td style="font-weight:bold;vertical-align:top;">httponly</td><td style="vertical-align:top;">:</td><td><div></div></td></tr><tr><td style="font-weight:bold;vertical-align:top;">max-age</td><td style="vertical-align:top;">:</td><td><div></div></td></tr><tr><td style="font-weight:bold;vertical-align:top;">path</td><td style="vertical-align:top;">:</td><td><div>/</div></td></tr><tr><td style="font-weight:bold;vertical-align:top;">secure</td><td style="vertical-align:top;">:</td><td><div></div></td></tr><tr><td style="font-weight:bold;vertical-align:top;">version</td><td style="vertical-align:top;">:</td><td><div></div></td></tr></table></div></td></tr></table></div></td></tr><tr><td style="font-weight:bold;vertical-align:top;">delimiters</td><td style="vertical-align:top;">:</td><td><div><table><tr><td><div>{{</div></td></tr><tr><td><div>}}</div></td></tr></table></div></td></tr><tr><td style="font-weight:bold;vertical-align:top;">files</td><td style="vertical-align:top;">:</td><td><div><table></table></div></td></tr><tr><td style="font-weight:bold;vertical-align:top;">flash</td><td style="vertical-align:top;">:</td><td><div></div></td></tr><tr><td style="font-weight:bold;vertical-align:top;">form_label_separator</td><td style="vertical-align:top;">:</td><td><div></div></td></tr><tr><td style="font-weight:bold;vertical-align:top;">formstyle</td><td style="vertical-align:top;">:</td><td><div>bootstrap3_inline</div></td></tr><tr><td style="font-weight:bold;vertical-align:top;">generic_patterns</td><td style="vertical-align:top;">:</td><td><div><table><tr><td><div>*</div></td></tr></table></div></td></tr><tr><td style="font-weight:bold;vertical-align:top;">headers</td><td style="vertical-align:top;">:</td><td><div><table><tr><td style="font-weight:bold;vertical-align:top;">X-Powered-By</td><td style="vertical-align:top;">:</td><td><div>web2py</div></td></tr></table></div></td></tr><tr><td style="font-weight:bold;vertical-align:top;">menu</td><td style="vertical-align:top;">:</td><td><div><table></table></div></td></tr><tr><td style="font-weight:bold;vertical-align:top;">meta</td><td style="vertical-align:top;">:</td><td><div><table></table></div></td></tr><tr><td style="font-weight:bold;vertical-align:top;">models_to_run</td><td style="vertical-align:top;">:</td><td><div><table><tr><td><div>^\\w+\\.py$</div></td></tr><tr><td><div>^appadmin/\\w+\\.py$</div></td></tr><tr><td><div>^appadmin/hooks/\\w+\\.py$</div></td></tr></table></div></td></tr><tr><td style="font-weight:bold;vertical-align:top;">postprocessing</td><td style="vertical-align:top;">:</td><td><div><table></table></div></td></tr><tr><td style="font-weight:bold;vertical-align:top;">session_client</td><td style="vertical-align:top;">:</td><td><div>127.0.0.1</div></td></tr><tr><td style="font-weight:bold;vertical-align:top;">session_cookie_compression_level</td><td style="vertical-align:top;">:</td><td><div>None</div></td></tr><tr><td style="font-weight:bold;vertical-align:top;">session_cookie_expires</td><td style="vertical-align:top;">:</td><td><div>None</div></td></tr><tr><td style="font-weight:bold;vertical-align:top;">session_cookie_key</td><td style="vertical-align:top;">:</td><td><div>None</div></td></tr><tr><td style="font-weight:bold;vertical-align:top;">session_data_name</td><td style="vertical-align:top;">:</td><td><div>session_data_yorock</div></td></tr><tr><td style="font-weight:bold;vertical-align:top;">session_file</td><td style="vertical-align:top;">:</td><td><div>&lt;open file &#x27;/home/pratyusha/web2py/applications/yorock/sessions/1dd/15c/127.0.0.1-2e45bd38-951a-456c-9ad4-e10b7820537a&#x27;, mode &#x27;rb+&#x27; at 0x7fcdb45e7150&gt;</div></td></tr><tr><td style="font-weight:bold;vertical-align:top;">session_filename</td><td style="vertical-align:top;">:</td><td><div>/home/pratyusha/web2py/applications/yorock/sessions/127.0.0.1-2e45bd38-951a-456c-9ad4-e10b7820537a</div></td></tr><tr><td style="font-weight:bold;vertical-align:top;">session_hash</td><td style="vertical-align:top;">:</td><td><div>b028cb714ef99d68f0c08155cc6459af</div></td></tr><tr><td style="font-weight:bold;vertical-align:top;">session_id</td><td style="vertical-align:top;">:</td><td><div>127.0.0.1-2e45bd38-951a-456c-9ad4-e10b7820537a</div></td></tr><tr><td style="font-weight:bold;vertical-align:top;">session_id_name</td><td style="vertical-align:top;">:</td><td><div>session_id_yorock</div></td></tr><tr><td style="font-weight:bold;vertical-align:top;">session_locked</td><td style="vertical-align:top;">:</td><td><div>True</div></td></tr><tr><td style="font-weight:bold;vertical-align:top;">session_masterapp</td><td style="vertical-align:top;">:</td><td><div>yorock</div></td></tr><tr><td style="font-weight:bold;vertical-align:top;">session_new</td><td style="vertical-align:top;">:</td><td><div>False</div></td></tr><tr><td style="font-weight:bold;vertical-align:top;">session_storage_type</td><td style="vertical-align:top;">:</td><td><div>file</div></td></tr><tr><td style="font-weight:bold;vertical-align:top;">status</td><td style="vertical-align:top;">:</td><td><div>200</div></td></tr><tr><td style="font-weight:bold;vertical-align:top;">view</td><td style="vertical-align:top;">:</td><td><div>appadmin/hooks.html</div></td></tr></table></div>'
tRp248
sS'locals'
p249
(dp250
S'a'
S"('CREATE TABLE Clothing(\\n    id INTEGER PRIMARY KE...GER,\\n    description TEXT,\\n    image CHAR(512)\\n);',)"
p251
sS'self'
p252
S'<pydal.adapters.sqlite.SQLiteAdapter object>'
p253
sS'b'
g21
sS'command'
p254
S"'CREATE TABLE Clothing(\\n    id INTEGER PRIMARY KE...GER,\\n    description TEXT,\\n    image CHAR(512)\\n);'"
p255
sS't0'
p256
S'1430588504.454669'
p257
sssS'traceback'
p258
S'Traceback (most recent call last):\n  File "/home/pratyusha/web2py/gluon/restricted.py", line 227, in restricted\n    exec ccode in environment\n  File "/home/pratyusha/web2py/applications/yorock/models/db.py", line 178, in <module>\n    Field(\'image\',\'upload\'),\n  File "/home/pratyusha/web2py/gluon/packages/dal/pydal/base.py", line 814, in define_table\n    table = self.lazy_define_table(tablename,*fields,**args)\n  File "/home/pratyusha/web2py/gluon/packages/dal/pydal/base.py", line 853, in lazy_define_table\n    polymodel=polymodel)\n  File "/home/pratyusha/web2py/gluon/packages/dal/pydal/adapters/base.py", line 463, in create_table\n    self.create_sequence_and_triggers(query,table)\n  File "/home/pratyusha/web2py/gluon/packages/dal/pydal/adapters/base.py", line 1307, in create_sequence_and_triggers\n    self.execute(query)\n  File "/home/pratyusha/web2py/gluon/packages/dal/pydal/adapters/base.py", line 1326, in execute\n    return self.log_execute(*a, **b)\n  File "/home/pratyusha/web2py/gluon/packages/dal/pydal/adapters/base.py", line 1320, in log_execute\n    ret = self.cursor.execute(command, *a[1:], **b)\nOperationalError: table Clothing already exists\n'
p259
s.